; Function Attrs: mustprogress nounwind uwtable
define noundef nonnull align 8 dereferenceable(32) ptr @_ZN4LIEF2PE17DynamicRelocationaSERKS1_(ptr noundef nonnull returned align 8 dereferenceable(32) %0, ptr noundef nonnull readonly align 8 dereferenceable(32) %1) local_unnamed_addr #1 align 2 {
  %3 = alloca %"class.std::unique_ptr", align 8
  %4 = icmp eq ptr %0, %1
  br i1 %4, label %26, label %5

5:                                                ; preds = %2
  %6 = getelementptr inbounds nuw i8, ptr %1, i64 8
  %7 = load i32, ptr %6, align 8, !tbaa !6
  %8 = getelementptr inbounds nuw i8, ptr %0, i64 8
  store i32 %7, ptr %8, align 8, !tbaa !6
  %9 = getelementptr inbounds nuw i8, ptr %1, i64 16
  %10 = load i64, ptr %9, align 8, !tbaa !19
  %11 = getelementptr inbounds nuw i8, ptr %0, i64 16
  store i64 %10, ptr %11, align 8, !tbaa !19
  %12 = getelementptr inbounds nuw i8, ptr %1, i64 24
  %13 = load ptr, ptr %12, align 8, !tbaa !21
  %.not = icmp eq ptr %13, null
  br i1 %.not, label %26, label %14

14:                                               ; preds = %5
  call void @llvm.lifetime.start.p0(i64 8, ptr nonnull %3) #9
  %15 = load ptr, ptr %13, align 8, !tbaa !3
  %16 = load ptr, ptr %15, align 8
  call void %16(ptr dead_on_unwind nonnull writable sret(%"class.std::unique_ptr") align 8 %3, ptr noundef nonnull align 8 dereferenceable(12) %13) #9
  %17 = getelementptr inbounds nuw i8, ptr %0, i64 24
  %18 = load ptr, ptr %3, align 8, !tbaa !21
  store ptr null, ptr %3, align 8, !tbaa !21
  %19 = load ptr, ptr %17, align 8, !tbaa !21
  store ptr %18, ptr %17, align 8, !tbaa !21
  %.not.i.i.i.i = icmp eq ptr %19, null
  br i1 %.not.i.i.i.i, label %_ZNSt10unique_ptrIN4LIEF2PE12DynamicFixupESt14default_deleteIS2_EED2Ev.exit, label %_ZNSt10unique_ptrIN4LIEF2PE12DynamicFixupESt14default_deleteIS2_EEaSEOS5_.exit

_ZNSt10unique_ptrIN4LIEF2PE12DynamicFixupESt14default_deleteIS2_EEaSEOS5_.exit: ; preds = %14
  %20 = load ptr, ptr %19, align 8, !tbaa !3
  %21 = getelementptr inbounds nuw i8, ptr %20, i64 24
  %22 = load ptr, ptr %21, align 8
  call void %22(ptr noundef nonnull align 8 dereferenceable(12) %19) #9
  %.pr = load ptr, ptr %3, align 8, !tbaa !21
  %.not.i = icmp eq ptr %.pr, null
  br i1 %.not.i, label %_ZNSt10unique_ptrIN4LIEF2PE12DynamicFixupESt14default_deleteIS2_EED2Ev.exit, label %_ZNKSt14default_deleteIN4LIEF2PE12DynamicFixupEEclEPS2_.exit.i

_ZNKSt14default_deleteIN4LIEF2PE12DynamicFixupEEclEPS2_.exit.i: ; preds = %_ZNSt10unique_ptrIN4LIEF2PE12DynamicFixupESt14default_deleteIS2_EEaSEOS5_.exit
  %23 = load ptr, ptr %.pr, align 8, !tbaa !3
  %24 = getelementptr inbounds nuw i8, ptr %23, i64 24
  %25 = load ptr, ptr %24, align 8
  call void %25(ptr noundef nonnull align 8 dereferenceable(12) %.pr) #9
  br label %_ZNSt10unique_ptrIN4LIEF2PE12DynamicFixupESt14default_deleteIS2_EED2Ev.exit

_ZNSt10unique_ptrIN4LIEF2PE12DynamicFixupESt14default_deleteIS2_EED2Ev.exit: ; preds = %14, %_ZNSt10unique_ptrIN4LIEF2PE12DynamicFixupESt14default_deleteIS2_EEaSEOS5_.exit, %_ZNKSt14default_deleteIN4LIEF2PE12DynamicFixupEEclEPS2_.exit.i
  call void @llvm.lifetime.end.p0(i64 8, ptr nonnull %3) #9
  br label %26

26:                                               ; preds = %5, %_ZNSt10unique_ptrIN4LIEF2PE12DynamicFixupESt14default_deleteIS2_EED2Ev.exit, %2
  ret ptr %0
}